target datalayout = "e-m:e-p270:32:32-p271:32:32-p272:64:64-i64:64-i128:128-f80:128-n8:16:32:64-S128"
target triple = "x86_64-unknown-linux-gnu"

%"class.rocksdb::Slice" = type { ptr, i64 }

; Function Attrs: mustprogress nounwind uwtable
define linkonce_odr void @_ZN7rocksdb5SliceC2EPKcm(ptr noundef nonnull align 8 dereferenceable(16) %this, ptr noundef %d, i64 noundef %n) unnamed_addr #1 comdat align 2 {
entry:
  %this.addr = alloca ptr, align 8
  %d.addr = alloca ptr, align 8
  %n.addr = alloca i64, align 8
  store ptr %this, ptr %this.addr, align 8
  store ptr %d, ptr %d.addr, align 8
  store i64 %n, ptr %n.addr, align 8
  %this1 = load ptr, ptr %this.addr, align 8
  %data_ = getelementptr inbounds %"class.rocksdb::Slice", ptr %this1, i32 0, i32 0
  %0 = load ptr, ptr %d.addr, align 8
  store ptr %0, ptr %data_, align 8
  %size_ = getelementptr inbounds %"class.rocksdb::Slice", ptr %this1, i32 0, i32 1
  %1 = load i64, ptr %n.addr, align 8
  store i64 %1, ptr %size_, align 8
  ret void
}

; Function Attrs: mustprogress uwtable
define internal { ptr, i64 } @_ZN7rocksdb12_GLOBAL__N_121GetSliceForFileNumberEPKm(ptr noundef %file_number) #0 {
entry:
  %retval = alloca %"class.rocksdb::Slice", align 8
  %file_number.addr = alloca ptr, align 8
  store ptr %file_number, ptr %file_number.addr, align 8
  %0 = load ptr, ptr %file_number.addr, align 8
  call void @_ZN7rocksdb5SliceC2EPKcm(ptr noundef nonnull align 8 dereferenceable(16) %retval, ptr noundef %0, i64 noundef 8)
  %1 = load { ptr, i64 }, ptr %retval, align 8
  ret { ptr, i64 } %1
}

; Function Attrs: mustprogress uwtable
define void @_ZN7rocksdb10TableCache5EvictEPNS_5CacheEm(ptr noundef %cache, i64 noundef %file_number) #0 align 2 {
entry:
  %cache.addr = alloca ptr, align 8
  %file_number.addr = alloca i64, align 8
  %ref.tmp = alloca %"class.rocksdb::Slice", align 8
  store ptr %cache, ptr %cache.addr, align 8
  store i64 %file_number, ptr %file_number.addr, align 8
  %0 = load ptr, ptr %cache.addr, align 8
  %call = call { ptr, i64 } @_ZN7rocksdb12_GLOBAL__N_121GetSliceForFileNumberEPKm(ptr noundef %file_number.addr)
  %1 = getelementptr inbounds { ptr, i64 }, ptr %ref.tmp, i32 0, i32 0
  %2 = extractvalue { ptr, i64 } %call, 0
  store ptr %2, ptr %1, align 8
  %3 = getelementptr inbounds { ptr, i64 }, ptr %ref.tmp, i32 0, i32 1
  %4 = extractvalue { ptr, i64 } %call, 1
  store i64 %4, ptr %3, align 8
  %vtable = load ptr, ptr %0, align 8
  %vfn = getelementptr inbounds ptr, ptr %vtable, i64 9
  %5 = load ptr, ptr %vfn, align 8
  call void %5(ptr noundef nonnull align 8 dereferenceable(56) %0, ptr noundef nonnull align 8 dereferenceable(16) %ref.tmp)
  ret void
}