; Function Attrs: mustprogress uwtable
define void @_ZN7rocksdb10TableCache5EvictEPNS_5CacheEm(ptr noundef %cache, i64 noundef %file_number) local_unnamed_addr #2 align 2 {
entry:
  %file_number.addr = alloca i64, align 8
  %ref.tmp = alloca %"class.rocksdb::Slice", align 8
  store i64 %file_number, ptr %file_number.addr, align 8
  store ptr %file_number.addr, ptr %ref.tmp, align 8
  %0 = getelementptr inbounds i8, ptr %ref.tmp, i64 8
  store i64 8, ptr %0, align 8
  %vtable = load ptr, ptr %cache, align 8
  %vfn = getelementptr inbounds i8, ptr %vtable, i64 72
  %1 = load ptr, ptr %vfn, align 8
  call void %1(ptr noundef nonnull align 8 dereferenceable(56) %cache, ptr noundef nonnull align 8 dereferenceable(16) %ref.tmp)
  ret void
}